target datalayout = "e-m:e-p270:32:32-p271:32:32-p272:64:64-i64:64-i128:128-f80:128-n8:16:32:64-S128"
target triple = "x86_64-pc-linux-gnu"

%struct.LWLock = type { i16, %struct.pg_atomic_uint32, %struct.proclist_head }
%struct.pg_atomic_uint32 = type { i32 }
%struct.proclist_head = type { i32, i32 }
%struct.PGPROC = type { %struct.dlist_node, ptr, ptr, i32, %struct.Latch, i32, i32, i32, i32, %struct.anon, i32, i32, i32, i8, i8, i8, i8, %struct.proclist_node, %struct.proclist_node, ptr, ptr, i32, i32, %struct.pg_atomic_uint64, i32, i8, i64, i32, %struct.dlist_node, [16 x %struct.dlist_head], %struct.XidCacheStatus, %struct.XidCache, i8, %struct.pg_atomic_uint32, i32, i32, i8, %struct.pg_atomic_uint32, i32, i32, i64, i64, %struct.LWLock, ptr, ptr, i8, i32, ptr, %struct.dlist_head, %struct.dlist_node }
%struct.Latch = type { i32, i32, i8, i32 }
%struct.anon = type { i32, i32 }
%struct.proclist_node = type { i32, i32 }
%struct.pg_atomic_uint64 = type { i64 }
%struct.XidCacheStatus = type { i8, i8 }
%struct.XidCache = type { [64 x i32] }
%struct.dlist_head = type { %struct.dlist_node }
%struct.dlist_node = type { ptr, ptr }
%struct.PROC_HDR = type { ptr, ptr, ptr, ptr, i32, %struct.dlist_head, %struct.dlist_head, %struct.dlist_head, %struct.dlist_head, %struct.pg_atomic_uint32, %struct.pg_atomic_uint32, i32, i32, i32, i32 }
%struct.SpinDelayStatus = type { i32, i32, i32, ptr, i32, ptr }

@.str.1 = private unnamed_addr constant [9 x i8] c"lwlock.c\00", align 1
@MyProc = external global ptr, align 8
@ProcGlobal = external global ptr, align 8
@MyProcNumber = external global i32, align 4
@__func__.LWLockWaitListLock = private unnamed_addr constant [19 x i8] c"LWLockWaitListLock\00", align 1

; Function Attrs: inlinehint nounwind uwtable
define internal i32 @pg_atomic_fetch_or_u32_impl(ptr noundef %0, i32 noundef %1) #5 {
  %3 = alloca ptr, align 8
  %4 = alloca i32, align 4
  store ptr %0, ptr %3, align 8
  store i32 %1, ptr %4, align 4
  %5 = load ptr, ptr %3, align 8
  %6 = getelementptr inbounds nuw %struct.pg_atomic_uint32, ptr %5, i32 0, i32 0
  %7 = load i32, ptr %4, align 4
  %8 = atomicrmw or ptr %6, i32 %7 seq_cst, align 4
  ret i32 %8
}

; Function Attrs: inlinehint nounwind uwtable
define internal i32 @pg_atomic_fetch_and_u32_impl(ptr noundef %0, i32 noundef %1) #5 {
  %3 = alloca ptr, align 8
  %4 = alloca i32, align 4
  store ptr %0, ptr %3, align 8
  store i32 %1, ptr %4, align 4
  %5 = load ptr, ptr %3, align 8
  %6 = getelementptr inbounds nuw %struct.pg_atomic_uint32, ptr %5, i32 0, i32 0
  %7 = load i32, ptr %4, align 4
  %8 = atomicrmw and ptr %6, i32 %7 seq_cst, align 4
  ret i32 %8
}

; Function Attrs: inlinehint nounwind uwtable
define internal i32 @pg_atomic_read_u32_impl(ptr noundef %0) #5 {
  %2 = alloca ptr, align 8
  store ptr %0, ptr %2, align 8
  %3 = load ptr, ptr %2, align 8
  %4 = getelementptr inbounds nuw %struct.pg_atomic_uint32, ptr %3, i32 0, i32 0
  %5 = load volatile i32, ptr %4, align 4
  ret i32 %5
}

; Function Attrs: inlinehint nounwind uwtable
define internal ptr @proclist_node_get(i32 noundef %0, i64 noundef %1) #5 {
  %3 = alloca i32, align 4
  %4 = alloca i64, align 8
  %5 = alloca ptr, align 8
  store i32 %0, ptr %3, align 4
  store i64 %1, ptr %4, align 8
  call void @llvm.lifetime.start.p0(i64 8, ptr %5) #9
  %6 = load ptr, ptr @ProcGlobal, align 8
  %7 = getelementptr inbounds nuw %struct.PROC_HDR, ptr %6, i32 0, i32 0
  %8 = load ptr, ptr %7, align 8
  %9 = load i32, ptr %3, align 4
  %10 = sext i32 %9 to i64
  %11 = getelementptr inbounds %struct.PGPROC, ptr %8, i64 %10
  store ptr %11, ptr %5, align 8
  %12 = load ptr, ptr %5, align 8
  %13 = load i64, ptr %4, align 8
  %14 = getelementptr inbounds nuw i8, ptr %12, i64 %13
  call void @llvm.lifetime.end.p0(i64 8, ptr %5) #9
  ret ptr %14
}

; Function Attrs: inlinehint nounwind uwtable
define internal void @init_spin_delay(ptr noundef %0, ptr noundef %1, i32 noundef %2, ptr noundef %3) #5 {
  %5 = alloca ptr, align 8
  %6 = alloca ptr, align 8
  %7 = alloca i32, align 4
  %8 = alloca ptr, align 8
  store ptr %0, ptr %5, align 8
  store ptr %1, ptr %6, align 8
  store i32 %2, ptr %7, align 4
  store ptr %3, ptr %8, align 8
  %9 = load ptr, ptr %5, align 8
  %10 = getelementptr inbounds nuw %struct.SpinDelayStatus, ptr %9, i32 0, i32 0
  store i32 0, ptr %10, align 8
  %11 = load ptr, ptr %5, align 8
  %12 = getelementptr inbounds nuw %struct.SpinDelayStatus, ptr %11, i32 0, i32 1
  store i32 0, ptr %12, align 4
  %13 = load ptr, ptr %5, align 8
  %14 = getelementptr inbounds nuw %struct.SpinDelayStatus, ptr %13, i32 0, i32 2
  store i32 0, ptr %14, align 8
  %15 = load ptr, ptr %6, align 8
  %16 = load ptr, ptr %5, align 8
  %17 = getelementptr inbounds nuw %struct.SpinDelayStatus, ptr %16, i32 0, i32 3
  store ptr %15, ptr %17, align 8
  %18 = load i32, ptr %7, align 4
  %19 = load ptr, ptr %5, align 8
  %20 = getelementptr inbounds nuw %struct.SpinDelayStatus, ptr %19, i32 0, i32 4
  store i32 %18, ptr %20, align 8
  %21 = load ptr, ptr %8, align 8
  %22 = load ptr, ptr %5, align 8
  %23 = getelementptr inbounds nuw %struct.SpinDelayStatus, ptr %22, i32 0, i32 5
  store ptr %21, ptr %23, align 8
  ret void
}

; Function Attrs: inlinehint nounwind uwtable
define internal i32 @pg_atomic_fetch_or_u32(ptr noundef %0, i32 noundef %1) #5 {
  %3 = alloca ptr, align 8
  %4 = alloca i32, align 4
  store ptr %0, ptr %3, align 8
  store i32 %1, ptr %4, align 4
  %5 = load ptr, ptr %3, align 8
  %6 = load i32, ptr %4, align 4
  %7 = call i32 @pg_atomic_fetch_or_u32_impl(ptr noundef %5, i32 noundef %6)
  ret i32 %7
}

; Function Attrs: nounwind uwtable
define internal void @LWLockWaitListUnlock(ptr noundef %0) #0 {
  %2 = alloca ptr, align 8
  %3 = alloca i32, align 4
  store ptr %0, ptr %2, align 8
  call void @llvm.lifetime.start.p0(i64 4, ptr %3) #9
  %4 = load ptr, ptr %2, align 8
  %5 = getelementptr inbounds nuw %struct.LWLock, ptr %4, i32 0, i32 1
  %6 = call i32 @pg_atomic_fetch_and_u32(ptr noundef %5, i32 noundef -268435457)
  store i32 %6, ptr %3, align 4
  call void @llvm.lifetime.end.p0(i64 4, ptr %3) #9
  ret void
}

; Function Attrs: inlinehint nounwind uwtable
define internal i32 @pg_atomic_fetch_and_u32(ptr noundef %0, i32 noundef %1) #5 {
  %3 = alloca ptr, align 8
  %4 = alloca i32, align 4
  store ptr %0, ptr %3, align 8
  store i32 %1, ptr %4, align 4
  %5 = load ptr, ptr %3, align 8
  %6 = load i32, ptr %4, align 4
  %7 = call i32 @pg_atomic_fetch_and_u32_impl(ptr noundef %5, i32 noundef %6)
  ret i32 %7
}

; Function Attrs: inlinehint nounwind uwtable
define internal i32 @pg_atomic_read_u32(ptr noundef %0) #5 {
  %2 = alloca ptr, align 8
  store ptr %0, ptr %2, align 8
  %3 = load ptr, ptr %2, align 8
  %4 = call i32 @pg_atomic_read_u32_impl(ptr noundef %3)
  ret i32 %4
}

; Function Attrs: inlinehint nounwind uwtable
define internal zeroext i1 @proclist_is_empty(ptr noundef %0) #5 {
  %2 = alloca ptr, align 8
  store ptr %0, ptr %2, align 8
  %3 = load ptr, ptr %2, align 8
  %4 = getelementptr inbounds nuw %struct.proclist_head, ptr %3, i32 0, i32 0
  %5 = load i32, ptr %4, align 4
  %6 = icmp eq i32 %5, -1
  ret i1 %6
}

; Function Attrs: inlinehint nounwind uwtable
define internal void @proclist_delete_offset(ptr noundef %0, i32 noundef %1, i64 noundef %2) #5 {
  %4 = alloca ptr, align 8
  %5 = alloca i32, align 4
  %6 = alloca i64, align 8
  %7 = alloca ptr, align 8
  store ptr %0, ptr %4, align 8
  store i32 %1, ptr %5, align 4
  store i64 %2, ptr %6, align 8
  call void @llvm.lifetime.start.p0(i64 8, ptr %7) #9
  %8 = load i32, ptr %5, align 4
  %9 = load i64, ptr %6, align 8
  %10 = call ptr @proclist_node_get(i32 noundef %8, i64 noundef %9)
  store ptr %10, ptr %7, align 8
  %11 = load ptr, ptr %7, align 8
  %12 = getelementptr inbounds nuw %struct.proclist_node, ptr %11, i32 0, i32 1
  %13 = load i32, ptr %12, align 4
  %14 = icmp eq i32 %13, -1
  br i1 %14, label %15, label %21

15:                                               ; preds = %3
  %16 = load ptr, ptr %7, align 8
  %17 = getelementptr inbounds nuw %struct.proclist_node, ptr %16, i32 0, i32 0
  %18 = load i32, ptr %17, align 4
  %19 = load ptr, ptr %4, align 8
  %20 = getelementptr inbounds nuw %struct.proclist_head, ptr %19, i32 0, i32 0
  store i32 %18, ptr %20, align 4
  br label %31

21:                                               ; preds = %3
  %22 = load ptr, ptr %7, align 8
  %23 = getelementptr inbounds nuw %struct.proclist_node, ptr %22, i32 0, i32 0
  %24 = load i32, ptr %23, align 4
  %25 = load ptr, ptr %7, align 8
  %26 = getelementptr inbounds nuw %struct.proclist_node, ptr %25, i32 0, i32 1
  %27 = load i32, ptr %26, align 4
  %28 = load i64, ptr %6, align 8
  %29 = call ptr @proclist_node_get(i32 noundef %27, i64 noundef %28)
  %30 = getelementptr inbounds nuw %struct.proclist_node, ptr %29, i32 0, i32 0
  store i32 %24, ptr %30, align 4
  br label %31

31:                                               ; preds = %21, %15
  %32 = load ptr, ptr %7, align 8
  %33 = getelementptr inbounds nuw %struct.proclist_node, ptr %32, i32 0, i32 0
  %34 = load i32, ptr %33, align 4
  %35 = icmp eq i32 %34, -1
  br i1 %35, label %36, label %42

36:                                               ; preds = %31
  %37 = load ptr, ptr %7, align 8
  %38 = getelementptr inbounds nuw %struct.proclist_node, ptr %37, i32 0, i32 1
  %39 = load i32, ptr %38, align 4
  %40 = load ptr, ptr %4, align 8
  %41 = getelementptr inbounds nuw %struct.proclist_head, ptr %40, i32 0, i32 1
  store i32 %39, ptr %41, align 4
  br label %52

42:                                               ; preds = %31
  %43 = load ptr, ptr %7, align 8
  %44 = getelementptr inbounds nuw %struct.proclist_node, ptr %43, i32 0, i32 1
  %45 = load i32, ptr %44, align 4
  %46 = load ptr, ptr %7, align 8
  %47 = getelementptr inbounds nuw %struct.proclist_node, ptr %46, i32 0, i32 0
  %48 = load i32, ptr %47, align 4
  %49 = load i64, ptr %6, align 8
  %50 = call ptr @proclist_node_get(i32 noundef %48, i64 noundef %49)
  %51 = getelementptr inbounds nuw %struct.proclist_node, ptr %50, i32 0, i32 1
  store i32 %45, ptr %51, align 4
  br label %52

52:                                               ; preds = %42, %36
  %53 = load ptr, ptr %7, align 8
  %54 = getelementptr inbounds nuw %struct.proclist_node, ptr %53, i32 0, i32 1
  store i32 0, ptr %54, align 4
  %55 = load ptr, ptr %7, align 8
  %56 = getelementptr inbounds nuw %struct.proclist_node, ptr %55, i32 0, i32 0
  store i32 0, ptr %56, align 4
  call void @llvm.lifetime.end.p0(i64 8, ptr %7) #9
  ret void
}

; Function Attrs: nounwind uwtable
define internal void @LWLockWaitListLock(ptr noundef %0) #0 {
  %2 = alloca ptr, align 8
  %3 = alloca i32, align 4
  %4 = alloca %struct.SpinDelayStatus, align 8
  store ptr %0, ptr %2, align 8
  call void @llvm.lifetime.start.p0(i64 4, ptr %3) #9
  br label %5

5:                                                ; preds = %23, %1
  br label %6

6:                                                ; preds = %5
  %7 = load ptr, ptr %2, align 8
  %8 = getelementptr inbounds nuw %struct.LWLock, ptr %7, i32 0, i32 1
  %9 = call i32 @pg_atomic_fetch_or_u32(ptr noundef %8, i32 noundef 268435456)
  store i32 %9, ptr %3, align 4
  %10 = load i32, ptr %3, align 4
  %11 = and i32 %10, 268435456
  %12 = icmp ne i32 %11, 0
  br i1 %12, label %14, label %13

13:                                               ; preds = %6
  br label %24

14:                                               ; preds = %6
  call void @llvm.lifetime.start.p0(i64 40, ptr %4) #9
  call void @init_spin_delay(ptr noundef %4, ptr noundef @.str.1, i32 noundef 876, ptr noundef @__func__.LWLockWaitListLock)
  br label %15

15:                                               ; preds = %19, %14
  %16 = load i32, ptr %3, align 4
  %17 = and i32 %16, 268435456
  %18 = icmp ne i32 %17, 0
  br i1 %18, label %19, label %23

19:                                               ; preds = %15
  call void @perform_spin_delay(ptr noundef %4)
  %20 = load ptr, ptr %2, align 8
  %21 = getelementptr inbounds nuw %struct.LWLock, ptr %20, i32 0, i32 1
  %22 = call i32 @pg_atomic_read_u32(ptr noundef %21)
  store i32 %22, ptr %3, align 4
  br label %15, !llvm.loop !26

23:                                               ; preds = %15
  call void @finish_spin_delay(ptr noundef %4)
  call void @llvm.lifetime.end.p0(i64 40, ptr %4) #9
  br label %5

24:                                               ; preds = %13
  call void @llvm.lifetime.end.p0(i64 4, ptr %3) #9
  ret void
}

; Function Attrs: nounwind uwtable
define internal void @LWLockDequeueSelf(ptr noundef %0) #0 {
  %2 = alloca ptr, align 8
  %3 = alloca i8, align 1
  %4 = alloca i32, align 4
  store ptr %0, ptr %2, align 8
  call void @llvm.lifetime.start.p0(i64 1, ptr %3) #9
  %5 = load ptr, ptr %2, align 8
  call void @LWLockWaitListLock(ptr noundef %5)
  %6 = load ptr, ptr @MyProc, align 8
  %7 = getelementptr inbounds nuw %struct.PGPROC, ptr %6, i32 0, i32 15
  %8 = load i8, ptr %7, align 2
  %9 = zext i8 %8 to i32
  %10 = icmp eq i32 %9, 1
  %11 = zext i1 %10 to i8
  store i8 %11, ptr %3, align 1
  %12 = load i8, ptr %3, align 1, !range !7, !noundef !8
  %13 = trunc i8 %12 to i1
  br i1 %13, label %14, label %18

14:                                               ; preds = %1
  %15 = load ptr, ptr %2, align 8
  %16 = getelementptr inbounds nuw %struct.LWLock, ptr %15, i32 0, i32 2
  %17 = load i32, ptr @MyProcNumber, align 4
  call void @proclist_delete_offset(ptr noundef %16, i32 noundef %17, i64 noundef 92)
  br label %18

18:                                               ; preds = %14, %1
  %19 = load ptr, ptr %2, align 8
  %20 = getelementptr inbounds nuw %struct.LWLock, ptr %19, i32 0, i32 2
  %21 = call zeroext i1 @proclist_is_empty(ptr noundef %20)
  br i1 %21, label %22, label %32

22:                                               ; preds = %18
  %23 = load ptr, ptr %2, align 8
  %24 = getelementptr inbounds nuw %struct.LWLock, ptr %23, i32 0, i32 1
  %25 = call i32 @pg_atomic_read_u32(ptr noundef %24)
  %26 = and i32 %25, 1073741824
  %27 = icmp ne i32 %26, 0
  br i1 %27, label %28, label %32

28:                                               ; preds = %22
  %29 = load ptr, ptr %2, align 8
  %30 = getelementptr inbounds nuw %struct.LWLock, ptr %29, i32 0, i32 1
  %31 = call i32 @pg_atomic_fetch_and_u32(ptr noundef %30, i32 noundef -1073741825)
  br label %32

32:                                               ; preds = %28, %22, %18
  %33 = load ptr, ptr %2, align 8
  call void @LWLockWaitListUnlock(ptr noundef %33)
  %34 = load i8, ptr %3, align 1, !range !7, !noundef !8
  %35 = trunc i8 %34 to i1
  br i1 %35, label %36, label %39

36:                                               ; preds = %32
  %37 = load ptr, ptr @MyProc, align 8
  %38 = getelementptr inbounds nuw %struct.PGPROC, ptr %37, i32 0, i32 15
  store i8 0, ptr %38, align 2
  br label %66

39:                                               ; preds = %32
  call void @llvm.lifetime.start.p0(i64 4, ptr %4) #9
  store i32 0, ptr %4, align 4
  %40 = load ptr, ptr %2, align 8
  %41 = getelementptr inbounds nuw %struct.LWLock, ptr %40, i32 0, i32 1
  %42 = call i32 @pg_atomic_fetch_or_u32(ptr noundef %41, i32 noundef 536870912)
  br label %43

43:                                               ; preds = %53, %39
  %44 = load ptr, ptr @MyProc, align 8
  %45 = getelementptr inbounds nuw %struct.PGPROC, ptr %44, i32 0, i32 2
  %46 = load ptr, ptr %45, align 8
  call void @PGSemaphoreLock(ptr noundef %46)
  %47 = load ptr, ptr @MyProc, align 8
  %48 = getelementptr inbounds nuw %struct.PGPROC, ptr %47, i32 0, i32 15
  %49 = load i8, ptr %48, align 2
  %50 = zext i8 %49 to i32
  %51 = icmp eq i32 %50, 0
  br i1 %51, label %52, label %53

52:                                               ; preds = %43
  br label %56

53:                                               ; preds = %43
  %54 = load i32, ptr %4, align 4
  %55 = add i32 %54, 1
  store i32 %55, ptr %4, align 4
  br label %43

56:                                               ; preds = %52
  br label %57

57:                                               ; preds = %61, %56
  %58 = load i32, ptr %4, align 4
  %59 = add i32 %58, -1
  store i32 %59, ptr %4, align 4
  %60 = icmp sgt i32 %58, 0
  br i1 %60, label %61, label %65

61:                                               ; preds = %57
  %62 = load ptr, ptr @MyProc, align 8
  %63 = getelementptr inbounds nuw %struct.PGPROC, ptr %62, i32 0, i32 2
  %64 = load ptr, ptr %63, align 8
  call void @PGSemaphoreUnlock(ptr noundef %64)
  br label %57, !llvm.loop !20

65:                                               ; preds = %57
  call void @llvm.lifetime.end.p0(i64 4, ptr %4) #9
  br label %66

66:                                               ; preds = %65, %36
  call void @llvm.lifetime.end.p0(i64 1, ptr %3) #9
  ret void
}