; Function Attrs: nounwind uwtable
define internal fastcc void @LWLockDequeueSelf(ptr noundef %0) unnamed_addr #0 {
  %2 = alloca %struct.SpinDelayStatus, align 8
  %3 = getelementptr inbounds nuw i8, ptr %0, i64 4
  %4 = atomicrmw or ptr %3, i32 268435456 seq_cst, align 4
  %5 = and i32 %4, 268435456
  %.not5.i = icmp eq i32 %5, 0
  br i1 %.not5.i, label %LWLockWaitListLock.exit, label %.lr.ph7.i

.lr.ph7.i:                                        ; preds = %1
  %6 = getelementptr inbounds nuw i8, ptr %2, i64 4
  %7 = getelementptr inbounds nuw i8, ptr %2, i64 8
  %8 = getelementptr inbounds nuw i8, ptr %2, i64 16
  %9 = getelementptr inbounds nuw i8, ptr %2, i64 24
  %10 = getelementptr inbounds nuw i8, ptr %2, i64 32
  br label %11

11:                                               ; preds = %._crit_edge.i, %.lr.ph7.i
  %12 = phi i32 [ %4, %.lr.ph7.i ], [ %16, %._crit_edge.i ]
  call void @llvm.lifetime.start.p0(i64 40, ptr nonnull %2) #15
  store i32 0, ptr %2, align 8
  store i32 0, ptr %6, align 4
  store i32 0, ptr %7, align 8
  store ptr @.str.1, ptr %8, align 8
  store i32 876, ptr %9, align 8
  store ptr @__func__.LWLockWaitListLock, ptr %10, align 8
  %13 = and i32 %12, 268435456
  %.not34.i = icmp eq i32 %13, 0
  br i1 %.not34.i, label %._crit_edge.i, label %.lr.ph.i

.lr.ph.i:                                         ; preds = %11, %.lr.ph.i
  call void @perform_spin_delay(ptr noundef nonnull %2) #15
  %14 = load volatile i32, ptr %3, align 4
  %15 = and i32 %14, 268435456
  %.not3.i = icmp eq i32 %15, 0
  br i1 %.not3.i, label %._crit_edge.i, label %.lr.ph.i, !llvm.loop !21

._crit_edge.i:                                    ; preds = %.lr.ph.i, %11
  call void @finish_spin_delay(ptr noundef nonnull %2) #15
  call void @llvm.lifetime.end.p0(i64 40, ptr nonnull %2) #15
  %16 = atomicrmw or ptr %3, i32 268435456 seq_cst, align 4
  %17 = and i32 %16, 268435456
  %.not.i = icmp eq i32 %17, 0
  br i1 %.not.i, label %LWLockWaitListLock.exit, label %11

LWLockWaitListLock.exit:                          ; preds = %._crit_edge.i, %1
  %18 = load ptr, ptr @MyProc, align 8
  %19 = getelementptr inbounds nuw i8, ptr %18, i64 90
  %20 = load i8, ptr %19, align 2
  %21 = icmp eq i8 %20, 1
  br i1 %21, label %22, label %47

22:                                               ; preds = %LWLockWaitListLock.exit
  %23 = load i32, ptr @MyProcNumber, align 4
  %24 = load ptr, ptr @ProcGlobal, align 8
  %25 = load ptr, ptr %24, align 8
  %26 = sext i32 %23 to i64
  %27 = getelementptr inbounds %struct.PGPROC, ptr %25, i64 %26, i32 17
  %28 = getelementptr inbounds nuw i8, ptr %27, i64 4
  %29 = load i32, ptr %28, align 4
  %30 = icmp eq i32 %29, -1
  %31 = load i32, ptr %27, align 4
  br i1 %30, label %32, label %34

32:                                               ; preds = %22
  %33 = getelementptr inbounds nuw i8, ptr %0, i64 8
  store i32 %31, ptr %33, align 4
  %.pre = load i32, ptr %28, align 4
  br label %37

34:                                               ; preds = %22
  %35 = sext i32 %29 to i64
  %36 = getelementptr inbounds %struct.PGPROC, ptr %25, i64 %35, i32 17
  store i32 %31, ptr %36, align 4
  br label %37

37:                                               ; preds = %34, %32
  %38 = phi i32 [ %29, %34 ], [ %.pre, %32 ]
  %39 = icmp eq i32 %31, -1
  br i1 %39, label %40, label %42

40:                                               ; preds = %37
  %41 = getelementptr inbounds nuw i8, ptr %0, i64 12
  store i32 %38, ptr %41, align 4
  br label %proclist_delete_offset.exit

42:                                               ; preds = %37
  %43 = load ptr, ptr @ProcGlobal, align 8
  %44 = load ptr, ptr %43, align 8
  %45 = sext i32 %31 to i64
  %46 = getelementptr inbounds %struct.PGPROC, ptr %44, i64 %45, i32 17, i32 1
  store i32 %38, ptr %46, align 4
  br label %proclist_delete_offset.exit

proclist_delete_offset.exit:                      ; preds = %40, %42
  store i32 0, ptr %28, align 4
  store i32 0, ptr %27, align 4
  br label %47

47:                                               ; preds = %proclist_delete_offset.exit, %LWLockWaitListLock.exit
  %48 = getelementptr inbounds nuw i8, ptr %0, i64 8
  %.val = load i32, ptr %48, align 4
  %49 = icmp eq i32 %.val, -1
  br i1 %49, label %50, label %55

50:                                               ; preds = %47
  %51 = load volatile i32, ptr %3, align 4
  %52 = and i32 %51, 1073741824
  %.not = icmp eq i32 %52, 0
  br i1 %.not, label %55, label %53

53:                                               ; preds = %50
  %54 = atomicrmw and ptr %3, i32 -1073741825 seq_cst, align 4
  br label %55

55:                                               ; preds = %53, %50, %47
  %56 = atomicrmw and ptr %3, i32 -268435457 seq_cst, align 4
  br i1 %21, label %57, label %60

57:                                               ; preds = %55
  %58 = load ptr, ptr @MyProc, align 8
  %59 = getelementptr inbounds nuw i8, ptr %58, i64 90
  store i8 0, ptr %59, align 2
  br label %.loopexit

60:                                               ; preds = %55
  %61 = atomicrmw or ptr %3, i32 536870912 seq_cst, align 4
  %.pre11 = load ptr, ptr @MyProc, align 8
  br label %62

62:                                               ; preds = %62, %60
  %63 = phi ptr [ %.pre11, %60 ], [ %66, %62 ]
  %.0 = phi i32 [ 0, %60 ], [ %70, %62 ]
  %64 = getelementptr inbounds nuw i8, ptr %63, i64 24
  %65 = load ptr, ptr %64, align 8
  call void @PGSemaphoreLock(ptr noundef %65) #15
  %66 = load ptr, ptr @MyProc, align 8
  %67 = getelementptr inbounds nuw i8, ptr %66, i64 90
  %68 = load i8, ptr %67, align 2
  %69 = icmp eq i8 %68, 0
  %70 = add i32 %.0, 1
  br i1 %69, label %.preheader, label %62

.preheader:                                       ; preds = %62
  %71 = icmp sgt i32 %.0, 0
  br i1 %71, label %.lr.ph, label %.loopexit

.lr.ph:                                           ; preds = %.preheader, %.lr.ph
  %.110 = phi i32 [ %72, %.lr.ph ], [ %.0, %.preheader ]
  %72 = add nsw i32 %.110, -1
  %73 = load ptr, ptr @MyProc, align 8
  %74 = getelementptr inbounds nuw i8, ptr %73, i64 24
  %75 = load ptr, ptr %74, align 8
  call void @PGSemaphoreUnlock(ptr noundef %75) #15
  %76 = icmp samesign ugt i32 %.110, 1
  br i1 %76, label %.lr.ph, label %.loopexit, !llvm.loop !22

.loopexit:                                        ; preds = %.lr.ph, %.preheader, %57
  ret void
}